target datalayout = "e-m:e-p270:32:32-p271:32:32-p272:64:64-i64:64-i128:128-f80:128-n8:16:32:64-S128"
target triple = "x86_64-pc-linux-gnu"

%struct.NFA = type { i32, i32, i8, i8, i8, i8, %union.anon, i32, i32, i32, i32, i32, i32, i32, [20 x i8] }
%union.anon = type { i16 }

; Function Attrs: nounwind uwtable
define hidden i32 @nfaGetZombieStatus(ptr noundef %0, ptr noundef %1, i64 noundef %2) #0 {
  %4 = alloca i32, align 4
  %5 = alloca ptr, align 8
  %6 = alloca ptr, align 8
  %7 = alloca i64, align 8
  %8 = alloca i32, align 4
  %9 = alloca i32, align 4
  %10 = alloca i32, align 4
  %11 = alloca i32, align 4
  %12 = alloca i32, align 4
  %13 = alloca i32, align 4
  %14 = alloca i32, align 4
  %15 = alloca i32, align 4
  %16 = alloca i32, align 4
  %17 = alloca i32, align 4
  %18 = alloca i32, align 4
  %19 = alloca i32, align 4
  %20 = alloca i32, align 4
  %21 = alloca i32, align 4
  %22 = alloca i32, align 4
  %23 = alloca i32, align 4
  %24 = alloca i32, align 4
  %25 = alloca i32, align 4
  store ptr %0, ptr %5, align 8
  store ptr %1, ptr %6, align 8
  store i64 %2, ptr %7, align 8
  %26 = load ptr, ptr %5, align 8
  %27 = getelementptr inbounds nuw %struct.NFA, ptr %26, i32 0, i32 2
  %28 = load i8, ptr %27, align 8
  %29 = zext i8 %28 to i32
  switch i32 %29, label %101 [
    i32 0, label %30
    i32 1, label %35
    i32 2, label %40
    i32 3, label %45
    i32 4, label %50
    i32 5, label %55
    i32 6, label %60
    i32 7, label %62
    i32 8, label %64
    i32 9, label %66
    i32 10, label %68
    i32 11, label %70
    i32 12, label %72
    i32 13, label %74
    i32 14, label %76
    i32 15, label %78
    i32 16, label %80
    i32 17, label %82
    i32 18, label %84
    i32 19, label %89
    i32 20, label %91
    i32 21, label %93
    i32 22, label %95
    i32 23, label %97
    i32 24, label %99
  ]

30:                                               ; preds = %3
  %31 = load ptr, ptr %5, align 8
  %32 = load ptr, ptr %6, align 8
  %33 = load i64, ptr %7, align 8
  %34 = call i32 @nfaExecLimEx32_zombie_status(ptr noundef %31, ptr noundef %32, i64 noundef %33)
  store i32 %34, ptr %4, align 4
  br label %103

35:                                               ; preds = %3
  %36 = load ptr, ptr %5, align 8
  %37 = load ptr, ptr %6, align 8
  %38 = load i64, ptr %7, align 8
  %39 = call i32 @nfaExecLimEx64_zombie_status(ptr noundef %36, ptr noundef %37, i64 noundef %38)
  store i32 %39, ptr %4, align 4
  br label %103

40:                                               ; preds = %3
  %41 = load ptr, ptr %5, align 8
  %42 = load ptr, ptr %6, align 8
  %43 = load i64, ptr %7, align 8
  %44 = call i32 @nfaExecLimEx128_zombie_status(ptr noundef %41, ptr noundef %42, i64 noundef %43)
  store i32 %44, ptr %4, align 4
  br label %103

45:                                               ; preds = %3
  %46 = load ptr, ptr %5, align 8
  %47 = load ptr, ptr %6, align 8
  %48 = load i64, ptr %7, align 8
  %49 = call i32 @nfaExecLimEx256_zombie_status(ptr noundef %46, ptr noundef %47, i64 noundef %48)
  store i32 %49, ptr %4, align 4
  br label %103

50:                                               ; preds = %3
  %51 = load ptr, ptr %5, align 8
  %52 = load ptr, ptr %6, align 8
  %53 = load i64, ptr %7, align 8
  %54 = call i32 @nfaExecLimEx384_zombie_status(ptr noundef %51, ptr noundef %52, i64 noundef %53)
  store i32 %54, ptr %4, align 4
  br label %103

55:                                               ; preds = %3
  %56 = load ptr, ptr %5, align 8
  %57 = load ptr, ptr %6, align 8
  %58 = load i64, ptr %7, align 8
  %59 = call i32 @nfaExecLimEx512_zombie_status(ptr noundef %56, ptr noundef %57, i64 noundef %58)
  store i32 %59, ptr %4, align 4
  br label %103

60:                                               ; preds = %3
  store i32 0, ptr %8, align 4
  %61 = load i32, ptr %8, align 4
  store i32 %61, ptr %4, align 4
  br label %103

62:                                               ; preds = %3
  store i32 0, ptr %9, align 4
  %63 = load i32, ptr %9, align 4
  store i32 %63, ptr %4, align 4
  br label %103

64:                                               ; preds = %3
  store i32 0, ptr %10, align 4
  %65 = load i32, ptr %10, align 4
  store i32 %65, ptr %4, align 4
  br label %103

66:                                               ; preds = %3
  store i32 0, ptr %11, align 4
  %67 = load i32, ptr %11, align 4
  store i32 %67, ptr %4, align 4
  br label %103

68:                                               ; preds = %3
  store i32 0, ptr %12, align 4
  %69 = load i32, ptr %12, align 4
  store i32 %69, ptr %4, align 4
  br label %103

70:                                               ; preds = %3
  store i32 0, ptr %13, align 4
  %71 = load i32, ptr %13, align 4
  store i32 %71, ptr %4, align 4
  br label %103

72:                                               ; preds = %3
  store i32 0, ptr %14, align 4
  %73 = load i32, ptr %14, align 4
  store i32 %73, ptr %4, align 4
  br label %103

74:                                               ; preds = %3
  store i32 0, ptr %15, align 4
  %75 = load i32, ptr %15, align 4
  store i32 %75, ptr %4, align 4
  br label %103

76:                                               ; preds = %3
  store i32 0, ptr %16, align 4
  %77 = load i32, ptr %16, align 4
  store i32 %77, ptr %4, align 4
  br label %103

78:                                               ; preds = %3
  store i32 0, ptr %17, align 4
  %79 = load i32, ptr %17, align 4
  store i32 %79, ptr %4, align 4
  br label %103

80:                                               ; preds = %3
  store i32 0, ptr %18, align 4
  %81 = load i32, ptr %18, align 4
  store i32 %81, ptr %4, align 4
  br label %103

82:                                               ; preds = %3
  store i32 0, ptr %19, align 4
  %83 = load i32, ptr %19, align 4
  store i32 %83, ptr %4, align 4
  br label %103

84:                                               ; preds = %3
  %85 = load ptr, ptr %5, align 8
  %86 = load ptr, ptr %6, align 8
  %87 = load i64, ptr %7, align 8
  %88 = call i32 @nfaExecTamarama_zombie_status(ptr noundef %85, ptr noundef %86, i64 noundef %87)
  store i32 %88, ptr %4, align 4
  br label %103

89:                                               ; preds = %3
  store i32 0, ptr %20, align 4
  %90 = load i32, ptr %20, align 4
  store i32 %90, ptr %4, align 4
  br label %103

91:                                               ; preds = %3
  store i32 0, ptr %21, align 4
  %92 = load i32, ptr %21, align 4
  store i32 %92, ptr %4, align 4
  br label %103

93:                                               ; preds = %3
  store i32 0, ptr %22, align 4
  %94 = load i32, ptr %22, align 4
  store i32 %94, ptr %4, align 4
  br label %103

95:                                               ; preds = %3
  store i32 0, ptr %23, align 4
  %96 = load i32, ptr %23, align 4
  store i32 %96, ptr %4, align 4
  br label %103

97:                                               ; preds = %3
  store i32 0, ptr %24, align 4
  %98 = load i32, ptr %24, align 4
  store i32 %98, ptr %4, align 4
  br label %103

99:                                               ; preds = %3
  store i32 0, ptr %25, align 4
  %100 = load i32, ptr %25, align 4
  store i32 %100, ptr %4, align 4
  br label %103

101:                                              ; preds = %3
  br label %102

102:                                              ; preds = %101
  store i32 0, ptr %4, align 4
  br label %103

103:                                              ; preds = %102, %99, %97, %95, %93, %91, %89, %84, %82, %80, %78, %76, %74, %72, %70, %68, %66, %64, %62, %60, %55, %50, %45, %40, %35, %30
  %104 = load i32, ptr %4, align 4
  ret i32 %104
}