; Function Attrs: nounwind uwtable
define hidden i32 @nfaGetZombieStatus(ptr noundef %0, ptr noundef %1, i64 noundef %2) local_unnamed_addr #0 {
  %4 = getelementptr inbounds nuw i8, ptr %0, i64 8
  %5 = load i8, ptr %4, align 8
  switch i8 %5, label %20 [
    i8 0, label %6
    i8 1, label %8
    i8 2, label %10
    i8 3, label %12
    i8 4, label %14
    i8 5, label %16
    i8 18, label %18
  ]

6:                                                ; preds = %3
  %7 = tail call i32 @nfaExecLimEx32_zombie_status(ptr noundef nonnull %0, ptr noundef %1, i64 noundef %2) #3
  br label %20

8:                                                ; preds = %3
  %9 = tail call i32 @nfaExecLimEx64_zombie_status(ptr noundef nonnull %0, ptr noundef %1, i64 noundef %2) #3
  br label %20

10:                                               ; preds = %3
  %11 = tail call i32 @nfaExecLimEx128_zombie_status(ptr noundef nonnull %0, ptr noundef %1, i64 noundef %2) #3
  br label %20

12:                                               ; preds = %3
  %13 = tail call i32 @nfaExecLimEx256_zombie_status(ptr noundef nonnull %0, ptr noundef %1, i64 noundef %2) #3
  br label %20

14:                                               ; preds = %3
  %15 = tail call i32 @nfaExecLimEx384_zombie_status(ptr noundef nonnull %0, ptr noundef %1, i64 noundef %2) #3
  br label %20

16:                                               ; preds = %3
  %17 = tail call i32 @nfaExecLimEx512_zombie_status(ptr noundef nonnull %0, ptr noundef %1, i64 noundef %2) #3
  br label %20

18:                                               ; preds = %3
  %19 = tail call i32 @nfaExecTamarama_zombie_status(ptr noundef nonnull %0, ptr noundef %1, i64 noundef %2) #3
  br label %20

20:                                               ; preds = %3, %18, %16, %14, %12, %10, %8, %6
  %.0 = phi i32 [ %19, %18 ], [ %17, %16 ], [ %15, %14 ], [ %13, %12 ], [ %11, %10 ], [ %9, %8 ], [ %7, %6 ], [ 0, %3 ]
  ret i32 %.0
}